target datalayout = "e-m:e-p270:32:32-p271:32:32-p272:64:64-i64:64-i128:128-f80:128-n8:16:32:64-S128"
target triple = "x86_64-pc-linux-gnu"

%"struct.std::array.2" = type { [4 x i64] }
%"class.arrow::GenericBasicDecimal.1" = type { %"struct.std::array.2" }
%"class.arrow::BasicDecimal256" = type { %"class.arrow::GenericBasicDecimal.1" }

; Function Attrs: mustprogress nounwind uwtable
define weak_odr void @_ZN5arrow19GenericBasicDecimalINS_15BasicDecimal256ELi256ELi4EEC2Ev(ptr noundef nonnull align 8 dereferenceable(32) %0) unnamed_addr #0 comdat($_ZN5arrow19GenericBasicDecimalINS_15BasicDecimal256ELi256ELi4EEC5Ev) align 2 {
  %2 = alloca ptr, align 8
  store ptr %0, ptr %2, align 8, !tbaa !18
  %3 = load ptr, ptr %2, align 8
  %4 = getelementptr inbounds nuw %"class.arrow::GenericBasicDecimal.1", ptr %3, i32 0, i32 0
  call void @llvm.memset.p0.i64(ptr align 8 %4, i8 0, i64 32, i1 false)
  ret void
}

; Function Attrs: mustprogress nounwind uwtable
define linkonce_odr void @_ZN5arrow15BasicDecimal256C2Ev(ptr noundef nonnull align 8 dereferenceable(32) %0) unnamed_addr #0 comdat align 2 {
  %2 = alloca ptr, align 8
  store ptr %0, ptr %2, align 8, !tbaa !237
  %3 = load ptr, ptr %2, align 8
  call void @_ZN5arrow19GenericBasicDecimalINS_15BasicDecimal256ELi256ELi4EEC2Ev(ptr noundef nonnull align 8 dereferenceable(32) %3) #12
  ret void
}

; Function Attrs: mustprogress uwtable
define void @_ZN5arrowdvERKNS_15BasicDecimal256ES2_(ptr dead_on_unwind noalias writable sret(%"class.arrow::BasicDecimal256") align 8 %0, ptr noundef nonnull align 8 dereferenceable(32) %1, ptr noundef nonnull align 8 dereferenceable(32) %2) #6 {
  %4 = alloca ptr, align 8
  %5 = alloca ptr, align 8
  %6 = alloca %"class.arrow::BasicDecimal256", align 8
  %7 = alloca i32, align 4
  store ptr %1, ptr %4, align 8, !tbaa !237
  store ptr %2, ptr %5, align 8, !tbaa !237
  call void @llvm.lifetime.start.p0(i64 32, ptr %6) #12
  call void @_ZN5arrow15BasicDecimal256C2Ev(ptr noundef nonnull align 8 dereferenceable(32) %6) #12
  call void @_ZN5arrow15BasicDecimal256C2Ev(ptr noundef nonnull align 8 dereferenceable(32) %0) #12
  call void @llvm.lifetime.start.p0(i64 4, ptr %7) #12
  %8 = load ptr, ptr %4, align 8, !tbaa !237
  %9 = load ptr, ptr %5, align 8, !tbaa !237
  %10 = call noundef i32 @_ZNK5arrow15BasicDecimal2566DivideERKS0_PS0_S3_(ptr noundef nonnull align 8 dereferenceable(32) %8, ptr noundef nonnull align 8 dereferenceable(32) %9, ptr noundef %0, ptr noundef %6)
  store i32 %10, ptr %7, align 4, !tbaa !50
  br label %11

11:                                               ; preds = %12, %3
  br i1 false, label %12, label %13

12:                                               ; preds = %11
  br label %11, !llvm.loop !317

13:                                               ; preds = %11
  br label %14

14:                                               ; preds = %15, %13
  br i1 false, label %15, label %16

15:                                               ; preds = %14
  br label %14, !llvm.loop !318

16:                                               ; preds = %14
  br label %17

17:                                               ; preds = %18, %16
  br i1 false, label %18, label %19

18:                                               ; preds = %17
  br label %17, !llvm.loop !319

19:                                               ; preds = %17
  call void @llvm.lifetime.end.p0(i64 4, ptr %7) #12
  call void @llvm.lifetime.end.p0(i64 32, ptr %6) #12
  ret void
}