; Function Attrs: mustprogress nofree norecurse nosync nounwind memory(argmem: readwrite) uwtable
define void @_ZN5arrowdvERKNS_15BasicDecimal256ES2_(ptr dead_on_unwind noalias writable sret(%"class.arrow::BasicDecimal256") align 8 captures(none) initializes((0, 32)) %0, ptr noundef nonnull readonly align 8 captures(none) dereferenceable(32) %1, ptr noundef nonnull readonly align 8 captures(none) dereferenceable(32) %2) local_unnamed_addr #8 {
  %4 = alloca %"class.arrow::BasicDecimal256", align 8
  call void @llvm.lifetime.start.p0(i64 32, ptr nonnull %4) #15
  call void @llvm.memset.p0.i64(ptr noundef nonnull align 8 dereferenceable(32) %4, i8 0, i64 32, i1 false)
  tail call void @llvm.memset.p0.i64(ptr noundef nonnull align 8 dereferenceable(32) %0, i8 0, i64 32, i1 false)
  %5 = call noundef i32 @_ZNK5arrow15BasicDecimal2566DivideERKS0_PS0_S3_(ptr noundef nonnull align 8 dereferenceable(32) %1, ptr noundef nonnull align 8 dereferenceable(32) %2, ptr noundef nonnull %0, ptr noundef nonnull %4)
  call void @llvm.lifetime.end.p0(i64 32, ptr nonnull %4) #15
  ret void
}